target datalayout = "e-m:e-p270:32:32-p271:32:32-p272:64:64-i64:64-i128:128-f80:128-n8:16:32:64-S128"
target triple = "x86_64-pc-linux-gnu"

%struct.H5HF_free_section_t = type { %struct.H5FS_section_info_t, %union.anon }
%struct.H5FS_section_info_t = type { i64, i64, i32, i32 }
%union.anon = type { %struct.anon.1 }
%struct.anon.1 = type { %union.anon.2, i32, i32, i32, ptr, i32, i64, i32, i32, i32, ptr, i32, ptr }
%union.anon.2 = type { ptr }

@H5HF_init_g = external global i8, align 1
@H5_libterm_g = external global i8, align 1
@.str = private unnamed_addr constant [105 x i8] c"generated/home/dtcxzyw/WorkSpace/Projects/compilers/llvm-opt-benchmark/bench/hdf5/hdf5/src/H5HFsection.c\00", align 1
@H5E_HEAP_g = external global i64, align 8
@H5E_CANTRELEASE_g = external global i64, align 8
@.str.15 = private unnamed_addr constant [33 x i8] c"can't free indirect section node\00", align 1
@.str.48 = private unnamed_addr constant [54 x i8] c"can't decrement ref. count on parent indirect section\00", align 1
@__func__.H5HF__sect_indirect_decr = private unnamed_addr constant [25 x i8] c"H5HF__sect_indirect_decr\00", align 1

; Function Attrs: nounwind uwtable
define internal i32 @H5HF__sect_indirect_decr(ptr noundef %0) #0 {
  %2 = alloca i32, align 4
  %3 = alloca ptr, align 8
  %4 = alloca i32, align 4
  %5 = alloca i8, align 1
  %6 = alloca ptr, align 8
  %7 = alloca i32, align 4
  store ptr %0, ptr %3, align 8, !tbaa !23
  call void @llvm.lifetime.start.p0(i64 4, ptr %4) #7
  store i32 0, ptr %4, align 4, !tbaa !11
  call void @llvm.lifetime.start.p0(i64 1, ptr %5) #7
  store i8 0, ptr %5, align 1, !tbaa !13
  %8 = load i8, ptr @H5HF_init_g, align 1, !tbaa !13, !range !15, !noundef !16
  %9 = trunc i8 %8 to i1
  br i1 %9, label %14, label %10

10:                                               ; preds = %1
  %11 = load i8, ptr @H5_libterm_g, align 1, !tbaa !13, !range !15, !noundef !16
  %12 = trunc i8 %11 to i1
  %13 = xor i1 %12, true
  br label %14

14:                                               ; preds = %10, %1
  %15 = phi i1 [ true, %1 ], [ %13, %10 ]
  %16 = xor i1 %15, true
  %17 = xor i1 %16, true
  %18 = zext i1 %17 to i32
  %19 = sext i32 %18 to i64
  %20 = call i64 @llvm.expect.i64(i64 %19, i64 1)
  %21 = icmp ne i64 %20, 0
  br i1 %21, label %22, label %93

22:                                               ; preds = %14
  %23 = load ptr, ptr %3, align 8, !tbaa !23
  %24 = getelementptr inbounds nuw %struct.H5HF_free_section_t, ptr %23, i32 0, i32 1
  %25 = getelementptr inbounds nuw %struct.anon.1, ptr %24, i32 0, i32 8
  %26 = load i32, ptr %25, align 4, !tbaa !63
  %27 = add i32 %26, -1
  store i32 %27, ptr %25, align 4, !tbaa !63
  %28 = load ptr, ptr %3, align 8, !tbaa !23
  %29 = getelementptr inbounds nuw %struct.H5HF_free_section_t, ptr %28, i32 0, i32 1
  %30 = getelementptr inbounds nuw %struct.anon.1, ptr %29, i32 0, i32 8
  %31 = load i32, ptr %30, align 4, !tbaa !63
  %32 = icmp eq i32 %31, 0
  br i1 %32, label %33, label %91

33:                                               ; preds = %22
  call void @llvm.lifetime.start.p0(i64 8, ptr %6) #7
  %34 = load ptr, ptr %3, align 8, !tbaa !23
  %35 = getelementptr inbounds nuw %struct.H5HF_free_section_t, ptr %34, i32 0, i32 1
  %36 = getelementptr inbounds nuw %struct.anon.1, ptr %35, i32 0, i32 4
  %37 = load ptr, ptr %36, align 8, !tbaa !63
  store ptr %37, ptr %6, align 8, !tbaa !23
  %38 = load ptr, ptr %3, align 8, !tbaa !23
  %39 = call i32 @H5HF__sect_indirect_free(ptr noundef %38)
  %40 = icmp slt i32 %39, 0
  br i1 %40, label %41, label %60

41:                                               ; preds = %33
  br label %42

42:                                               ; preds = %41
  br label %43

43:                                               ; preds = %42
  br label %44

44:                                               ; preds = %43
  %45 = load i64, ptr @H5E_HEAP_g, align 8, !tbaa !25
  %46 = load i64, ptr @H5E_CANTRELEASE_g, align 8, !tbaa !25
  %47 = call i32 (ptr, ptr, i32, i64, i64, ptr, ...) @H5E_printf_stack(ptr noundef @.str, ptr noundef @__func__.H5HF__sect_indirect_decr, i32 noundef 2551, i64 noundef %45, i64 noundef %46, ptr noundef @.str.15)
  br label %48

48:                                               ; preds = %44
  br label %49

49:                                               ; preds = %48
  store i8 1, ptr %5, align 1, !tbaa !13
  %50 = load i8, ptr %5, align 1, !tbaa !13, !range !15, !noundef !16
  %51 = trunc i8 %50 to i1
  %52 = zext i1 %51 to i8
  store i8 %52, ptr %5, align 1, !tbaa !13
  br label %53

53:                                               ; preds = %49
  br label %54

54:                                               ; preds = %53
  br label %55

55:                                               ; preds = %54
  store i32 -1, ptr %4, align 4, !tbaa !11
  store i32 10, ptr %7, align 4
  br label %88

56:                                               ; No predecessors!
  br label %57

57:                                               ; preds = %56
  br label %58

58:                                               ; preds = %57
  br label %59

59:                                               ; preds = %58
  br label %60

60:                                               ; preds = %59, %33
  %61 = load ptr, ptr %6, align 8, !tbaa !23
  %62 = icmp ne ptr %61, null
  br i1 %62, label %63, label %87

63:                                               ; preds = %60
  %64 = load ptr, ptr %6, align 8, !tbaa !23
  %65 = call i32 @H5HF__sect_indirect_decr(ptr noundef %64)
  %66 = icmp slt i32 %65, 0
  br i1 %66, label %67, label %86

67:                                               ; preds = %63
  br label %68

68:                                               ; preds = %67
  br label %69

69:                                               ; preds = %68
  br label %70

70:                                               ; preds = %69
  %71 = load i64, ptr @H5E_HEAP_g, align 8, !tbaa !25
  %72 = load i64, ptr @H5E_CANTRELEASE_g, align 8, !tbaa !25
  %73 = call i32 (ptr, ptr, i32, i64, i64, ptr, ...) @H5E_printf_stack(ptr noundef @.str, ptr noundef @__func__.H5HF__sect_indirect_decr, i32 noundef 2557, i64 noundef %71, i64 noundef %72, ptr noundef @.str.48)
  br label %74

74:                                               ; preds = %70
  br label %75

75:                                               ; preds = %74
  store i8 1, ptr %5, align 1, !tbaa !13
  %76 = load i8, ptr %5, align 1, !tbaa !13, !range !15, !noundef !16
  %77 = trunc i8 %76 to i1
  %78 = zext i1 %77 to i8
  store i8 %78, ptr %5, align 1, !tbaa !13
  br label %79

79:                                               ; preds = %75
  br label %80

80:                                               ; preds = %79
  br label %81

81:                                               ; preds = %80
  store i32 -1, ptr %4, align 4, !tbaa !11
  store i32 10, ptr %7, align 4
  br label %88

82:                                               ; No predecessors!
  br label %83

83:                                               ; preds = %82
  br label %84

84:                                               ; preds = %83
  br label %85

85:                                               ; preds = %84
  br label %86

86:                                               ; preds = %85, %63
  br label %87

87:                                               ; preds = %86, %60
  store i32 0, ptr %7, align 4
  br label %88

88:                                               ; preds = %81, %55, %87
  call void @llvm.lifetime.end.p0(i64 8, ptr %6) #7
  %89 = load i32, ptr %7, align 4
  switch i32 %89, label %95 [
    i32 0, label %90
    i32 10, label %92
  ]

90:                                               ; preds = %88
  br label %91

91:                                               ; preds = %90, %22
  br label %92

92:                                               ; preds = %91, %88
  br label %93

93:                                               ; preds = %92, %14
  %94 = load i32, ptr %4, align 4, !tbaa !11
  store i32 %94, ptr %2, align 4
  store i32 1, ptr %7, align 4
  br label %95

95:                                               ; preds = %93, %88
  call void @llvm.lifetime.end.p0(i64 1, ptr %5) #7
  call void @llvm.lifetime.end.p0(i64 4, ptr %4) #7
  %96 = load i32, ptr %2, align 4
  ret i32 %96
}