; Function Attrs: nounwind uwtable
define internal fastcc noundef range(i32 -1, 1) i32 @H5HF__sect_indirect_decr(ptr noundef %0) unnamed_addr #0 {
  %2 = load i8, ptr @H5HF_init_g, align 1, !tbaa !3, !range !7, !noundef !8
  %3 = trunc nuw i8 %2 to i1
  %4 = load i8, ptr @H5_libterm_g, align 1, !range !7
  %5 = trunc nuw i8 %4 to i1
  %6 = xor i1 %5, true
  %7 = select i1 %3, i1 true, i1 %6
  br i1 %7, label %8, label %30, !prof !9

8:                                                ; preds = %1
  %9 = getelementptr inbounds nuw i8, ptr %0, i64 76
  %10 = load i32, ptr %9, align 4, !tbaa !26
  %11 = add i32 %10, -1
  store i32 %11, ptr %9, align 4, !tbaa !26
  %12 = icmp eq i32 %11, 0
  br i1 %12, label %13, label %30

13:                                               ; preds = %8
  %14 = getelementptr inbounds nuw i8, ptr %0, i64 48
  %15 = load ptr, ptr %14, align 8, !tbaa !26
  %16 = tail call fastcc i32 @H5HF__sect_indirect_free(ptr noundef nonnull %0)
  %17 = icmp slt i32 %16, 0
  br i1 %17, label %18, label %22

18:                                               ; preds = %13
  %19 = load i64, ptr @H5E_HEAP_g, align 8, !tbaa !18
  %20 = load i64, ptr @H5E_CANTRELEASE_g, align 8, !tbaa !18
  %21 = tail call i32 (ptr, ptr, i32, i64, i64, ptr, ...) @H5E_printf_stack(ptr noundef nonnull @.str, ptr noundef nonnull @__func__.H5HF__sect_indirect_decr, i32 noundef 2551, i64 noundef %19, i64 noundef %20, ptr noundef nonnull @.str.15) #13
  br label %30

22:                                               ; preds = %13
  %.not = icmp eq ptr %15, null
  br i1 %.not, label %30, label %23

23:                                               ; preds = %22
  %24 = tail call fastcc i32 @H5HF__sect_indirect_decr(ptr noundef nonnull %15)
  %25 = icmp slt i32 %24, 0
  br i1 %25, label %26, label %30

26:                                               ; preds = %23
  %27 = load i64, ptr @H5E_HEAP_g, align 8, !tbaa !18
  %28 = load i64, ptr @H5E_CANTRELEASE_g, align 8, !tbaa !18
  %29 = tail call i32 (ptr, ptr, i32, i64, i64, ptr, ...) @H5E_printf_stack(ptr noundef nonnull @.str, ptr noundef nonnull @__func__.H5HF__sect_indirect_decr, i32 noundef 2557, i64 noundef %27, i64 noundef %28, ptr noundef nonnull @.str.48) #13
  br label %30

30:                                               ; preds = %18, %26, %23, %22, %1, %8
  %.010 = phi i32 [ 0, %8 ], [ 0, %1 ], [ -1, %18 ], [ -1, %26 ], [ 0, %23 ], [ 0, %22 ]
  ret i32 %.010
}